cdebian_linux.config
ConfigCore
p0
(tRp1
(Vabi
p2
tp3
(dp4
Vabiname
p5
V12.1
p6
ss(Vbase
p7
tp8
(dp9
Varches
p10
(lp11
Vamd64
p12
asVcompiler
p13
Vgcc
p14
sVfeaturesets
p15
(lp16
Vnone
p17
ass(Vdescription
p18
tp19
(dp20
Vpart-long-up
p21
VThis kernel is not suitable for SMP (multi-processor,\u000amulti-core or hyper-threaded) systems.
p22
ss(Vimage
p23
tp24
(dp25
Vinitramfs-generators
p26
(lp27
Vinitramfs-tools
p28
aVinitramfs-fallback
p29
asVtype
p30
Vplain
p31
ss(Vrelations
p32
tp33
(dp34
Vgcc
p35
Vgcc
p36
sVinitramfs-fallback
p37
Vlinux-initramfs-tool
p38
sVinitramfs-tools
p39
Vinitramfs-tools
p40
ss(Vbase
p41
Vamd64
p42
tp43
(dp44
Vfeaturesets
p45
(lp46
Vnone
p47
aVnone
p48
asVkernel-arch
p49
Vx86
p50
ss(Vbuild
p51
g42
tp52
(dp53
Vdebug-info
p54
I00
sVimage-file
p55
Varch/x86/boot/bzImage
p56
ss(Vimage
p57
g42
tp58
(dp59
Vbootloaders
p60
(lp61
Vgrub-pc
p62
aVextlinux
p63
aVgrub-efi-amd64
p64
asVconfigs
p65
(lp66
sVinstall-stem
p67
Vvmlinuz
p68
sVsuggests
p69
Vcrda
p70
ss(Vdescription
p71
g42
NVliquorix-amd64
p72
tp73
(dp74
Vhardware
p75
V64-bit PCs
p76
sVhardware-long
p77
VPCs with AMD64 or Intel 64 processors
p78
ss(Vimage
p79
g42
NVliquorix-amd64
p80
tp81
(dp82
Vconfigs
p83
(lp84
Vkernelarch-x86/config-arch-64
p85
ass(Vbase
p86
g42
g48
tp87
(dp88
Vflavours
p89
(lp90
Vliquorix-amd64
p91
asVimplicit-flavour
p92
I01
ss(Vversion
p93
tp94
(dp95
Vsource
p96
V6.0-9ubuntu2~kinetic
p97
sVupstream
p98
V6.0
p99
sVabiname_base
p100
V6.0.0
p101
sVabiname
p102
V6.0.0-12.1
p103
ss.